Certificate:
    Data:
        Version: 3 (0x2)
        Serial Number: 2 (0x2)
    Signature Algorithm: sha256WithRSAEncryption
        Issuer: C=ID, ST=EASTJAVA, L=Kediri, O=Surga, OU=TC, CN=Surga CA/name=surga/emailAddress=yunus11@mhs.if.its.ac.id
        Validity
            Not Before: Mar 16 08:50:54 2015 GMT
            Not After : Mar 13 08:50:54 2025 GMT
        Subject: C=ID, ST=EASTJAVA, L=Kediri, O=Surga, OU=TC, CN=yunus/name=surga/emailAddress=yunus11@mhs.if.its.ac.id
        Subject Public Key Info:
            Public Key Algorithm: rsaEncryption
                Public-Key: (2048 bit)
                Modulus:
                    00:c5:a6:75:85:f7:e3:c8:9c:38:20:3e:ac:2e:ff:
                    22:00:00:15:5d:9b:6a:cb:ce:3c:26:0a:1b:04:15:
                    57:64:69:d4:f9:21:c8:6e:ac:37:44:d9:9a:9a:9a:
                    de:2c:78:0f:cf:98:b3:20:c6:46:df:8c:31:d4:91:
                    61:cd:21:c6:ad:b9:e1:44:13:43:26:5a:60:d3:85:
                    70:34:a1:4c:45:99:0e:40:10:8e:22:53:a5:38:40:
                    09:05:79:41:72:41:2b:be:21:e5:2c:ba:ca:63:8c:
                    1f:bf:83:22:bc:73:46:6c:0a:9a:a2:24:8b:ac:03:
                    c1:4b:e4:27:83:31:be:c1:ac:45:ed:da:ec:00:33:
                    54:7c:a9:29:d1:0b:5e:2a:8e:8d:5d:4c:7c:02:ee:
                    9d:a0:d5:50:e1:15:ac:91:05:22:7c:af:89:f1:db:
                    07:c7:1d:95:79:cf:0e:bd:df:0f:c4:4d:3d:93:8c:
                    f0:c4:bc:31:7b:f0:e0:cd:2b:2f:19:d7:e8:b8:35:
                    ec:33:52:fa:29:12:9b:0d:89:93:95:85:bd:ff:6a:
                    81:99:43:5d:8d:d5:83:20:c1:38:14:3b:d8:8d:d9:
                    42:8e:0f:d3:97:89:7c:75:ff:07:5f:4d:f9:08:d3:
                    52:29:60:fa:2f:06:9b:be:af:e2:00:b4:3c:32:00:
                    ea:09
                Exponent: 65537 (0x10001)
        X509v3 extensions:
            X509v3 Basic Constraints: 
                CA:FALSE
            Netscape Comment: 
                Easy-RSA Generated Certificate
            X509v3 Subject Key Identifier: 
                04:27:29:1C:A2:B1:03:8A:0B:E9:32:2F:F5:33:85:2D:1B:78:85:27
            X509v3 Authority Key Identifier: 
                keyid:63:44:FB:79:A3:C6:F4:30:AB:20:42:B5:DF:82:48:E2:CB:F4:D3:5B
                DirName:/C=ID/ST=EASTJAVA/L=Kediri/O=Surga/OU=TC/CN=Surga CA/name=surga/emailAddress=yunus11@mhs.if.its.ac.id
                serial:BE:0E:91:9D:B7:4E:3B:BA

            X509v3 Extended Key Usage: 
                TLS Web Client Authentication
            X509v3 Key Usage: 
                Digital Signature
            X509v3 Subject Alternative Name: 
                DNS:yunus
    Signature Algorithm: sha256WithRSAEncryption
         ae:17:93:77:7d:fa:04:2a:45:b1:8c:b6:2d:d9:f6:d0:22:78:
         87:b9:73:c1:20:3b:26:50:2a:4b:99:3b:91:e0:a2:87:48:ad:
         31:89:af:87:41:dd:3f:0c:51:c8:99:2f:cb:6d:56:79:b8:73:
         0d:87:e3:77:aa:eb:d6:3e:c9:1e:c3:c3:51:00:8f:02:49:46:
         94:2c:1d:07:4f:de:a5:73:14:e3:61:3f:98:15:b9:06:48:b4:
         01:0f:d5:f2:7e:8a:a6:56:91:9c:f2:ac:2b:e5:38:c2:d7:0e:
         51:8b:dd:ee:04:ef:b0:6a:fe:fa:af:f5:f4:02:8d:17:54:b1:
         52:7d:09:65:d6:6e:1f:25:07:d0:b6:10:10:72:5e:b5:ca:04:
         8c:c5:e8:72:8d:52:ea:61:4e:46:79:19:f3:79:a7:3e:3e:a1:
         5b:f6:09:7f:62:ab:a8:78:d1:12:16:87:5d:28:fb:0f:0b:f8:
         27:34:ed:0a:f6:7f:ea:54:9b:a6:1d:8c:99:ab:d5:39:ee:52:
         9c:f2:c8:f1:1d:fc:21:8a:69:3d:9f:0d:5e:e7:d3:35:dc:d5:
         84:a0:a8:12:06:1b:4b:30:3f:47:76:27:3e:27:29:dc:83:6c:
         40:c5:dc:f1:b2:10:f1:2b:81:8a:2e:91:eb:6f:16:31:98:3c:
         b5:2e:34:a0
-----BEGIN CERTIFICATE-----
MIIFEzCCA/ugAwIBAgIBAjANBgkqhkiG9w0BAQsFADCBmjELMAkGA1UEBhMCSUQx
ETAPBgNVBAgTCEVBU1RKQVZBMQ8wDQYDVQQHEwZLZWRpcmkxDjAMBgNVBAoTBVN1
cmdhMQswCQYDVQQLEwJUQzERMA8GA1UEAxMIU3VyZ2EgQ0ExDjAMBgNVBCkTBXN1
cmdhMScwJQYJKoZIhvcNAQkBFhh5dW51czExQG1ocy5pZi5pdHMuYWMuaWQwHhcN
MTUwMzE2MDg1MDU0WhcNMjUwMzEzMDg1MDU0WjCBlzELMAkGA1UEBhMCSUQxETAP
BgNVBAgTCEVBU1RKQVZBMQ8wDQYDVQQHEwZLZWRpcmkxDjAMBgNVBAoTBVN1cmdh
MQswCQYDVQQLEwJUQzEOMAwGA1UEAxMFeXVudXMxDjAMBgNVBCkTBXN1cmdhMScw
JQYJKoZIhvcNAQkBFhh5dW51czExQG1ocy5pZi5pdHMuYWMuaWQwggEiMA0GCSqG
SIb3DQEBAQUAA4IBDwAwggEKAoIBAQDFpnWF9+PInDggPqwu/yIAABVdm2rLzjwm
ChsEFVdkadT5IchurDdE2Zqamt4seA/PmLMgxkbfjDHUkWHNIcatueFEE0MmWmDT
hXA0oUxFmQ5AEI4iU6U4QAkFeUFyQSu+IeUsuspjjB+/gyK8c0ZsCpqiJIusA8FL
5CeDMb7BrEXt2uwAM1R8qSnRC14qjo1dTHwC7p2g1VDhFayRBSJ8r4nx2wfHHZV5
zw693w/ETT2TjPDEvDF78ODNKy8Z1+i4NewzUvopEpsNiZOVhb3/aoGZQ12N1YMg
wTgUO9iN2UKOD9OXiXx1/wdfTfkI01IpYPovBpu+r+IAtDwyAOoJAgMBAAGjggFj
MIIBXzAJBgNVHRMEAjAAMC0GCWCGSAGG+EIBDQQgFh5FYXN5LVJTQSBHZW5lcmF0
ZWQgQ2VydGlmaWNhdGUwHQYDVR0OBBYEFAQnKRyisQOKC+kyL/UzhS0beIUnMIHP
BgNVHSMEgccwgcSAFGNE+3mjxvQwqyBCtd+CSOLL9NNboYGgpIGdMIGaMQswCQYD
VQQGEwJJRDERMA8GA1UECBMIRUFTVEpBVkExDzANBgNVBAcTBktlZGlyaTEOMAwG
A1UEChMFU3VyZ2ExCzAJBgNVBAsTAlRDMREwDwYDVQQDEwhTdXJnYSBDQTEOMAwG
A1UEKRMFc3VyZ2ExJzAlBgkqhkiG9w0BCQEWGHl1bnVzMTFAbWhzLmlmLml0cy5h
Yy5pZIIJAL4OkZ23Tju6MBMGA1UdJQQMMAoGCCsGAQUFBwMCMAsGA1UdDwQEAwIH
gDAQBgNVHREECTAHggV5dW51czANBgkqhkiG9w0BAQsFAAOCAQEArheTd336BCpF
sYy2Ldn20CJ4h7lzwSA7JlAqS5k7keCih0itMYmvh0HdPwxRyJkvy21WebhzDYfj
d6rr1j7JHsPDUQCPAklGlCwdB0/epXMU42E/mBW5Bki0AQ/V8n6KplaRnPKsK+U4
wtcOUYvd7gTvsGr++q/19AKNF1SxUn0JZdZuHyUH0LYQEHJetcoEjMXoco1S6mFO
RnkZ83mnPj6hW/YJf2KrqHjREhaHXSj7Dwv4JzTtCvZ/6lSbph2MmavVOe5SnPLI
8R38IYppPZ8NXufTNdzVhKCoEgYbSzA/R3YnPicp3INsQMXc8bIQ8SuBii6R628W
MZg8tS40oA==
-----END CERTIFICATE-----
